; Function Attrs: mustprogress uwtable
define hidden void @_ZN4cvc58internal6theory5arith6linear10Constraint15assertionFringeERSt6vectorIPKS4_SaIS7_EERKS9_(ptr noundef nonnull align 8 dereferenceable(24) %o, ptr nocapture noundef nonnull readonly align 8 dereferenceable(24) %i) local_unnamed_addr #4 align 2 {
entry:
  %_M_finish.i = getelementptr inbounds i8, ptr %o, i64 8
  %0 = load ptr, ptr %_M_finish.i, align 8
  %1 = load ptr, ptr %i, align 8
  %_M_finish.i4 = getelementptr inbounds i8, ptr %i, i64 8
  %2 = load ptr, ptr %_M_finish.i4, align 8
  %3 = load ptr, ptr %o, align 8
  %sub.ptr.lhs.cast.i.i = ptrtoint ptr %0 to i64
  %sub.ptr.rhs.cast.i.i = ptrtoint ptr %3 to i64
  %sub.ptr.sub.i.i = sub i64 %sub.ptr.lhs.cast.i.i, %sub.ptr.rhs.cast.i.i
  %add.ptr.i.i = getelementptr inbounds i8, ptr %3, i64 %sub.ptr.sub.i.i
  tail call void @_ZNSt6vectorIPKN4cvc58internal6theory5arith6linear10ConstraintESaIS7_EE15_M_range_insertIN9__gnu_cxx17__normal_iteratorIPKS7_S9_EEEEvNSC_IPS7_S9_EET_SI_St20forward_iterator_tag(ptr noundef nonnull align 8 dereferenceable(24) %o, ptr %add.ptr.i.i, ptr %1, ptr %2)
  tail call void @_ZN4cvc58internal6theory5arith6linear10Constraint15assertionFringeERSt6vectorIPKS4_SaIS7_EE(ptr noundef nonnull align 8 dereferenceable(24) %o)
  ret void
}